; Function Attrs: mustprogress uwtable
define dso_local void @_ZN3net21QuicSentPacketManager30CancelRetransmissionsForStreamEj(ptr noundef nonnull align 8 dereferenceable(776) %this, i32 noundef %stream_id) unnamed_addr #0 align 2 {
entry:
  %unacked_packets_ = getelementptr inbounds i8, ptr %this, i64 8
  tail call void @_ZN3net20QuicUnackedPacketMap30CancelRetransmissionsForStreamEj(ptr noundef nonnull align 8 dereferenceable(120) %unacked_packets_, i32 noundef %stream_id)
  %delegate_ = getelementptr inbounds i8, ptr %this, i64 232
  %0 = load ptr, ptr %delegate_, align 8
  %cmp.not = icmp eq ptr %0, null
  br i1 %cmp.not, label %if.end, label %while.end

if.end:                                           ; preds = %entry
  %pending_retransmissions_ = getelementptr inbounds i8, ptr %this, i64 128
  %list_.i = getelementptr inbounds i8, ptr %this, i64 184
  %1 = load ptr, ptr %list_.i, align 8
  %cmp.i.not4 = icmp eq ptr %1, %list_.i
  br i1 %cmp.i.not4, label %while.end, label %while.body

while.body:                                       ; preds = %if.end, %while.cond.backedge
  %it.sroa.0.05 = phi ptr [ %it.sroa.0.0.be, %while.cond.backedge ], [ %1, %if.end ]
  %_M_storage.i.i = getelementptr inbounds i8, ptr %it.sroa.0.05, i64 16
  %2 = load i64, ptr %_M_storage.i.i, align 8
  %call8 = tail call noundef zeroext i1 @_ZNK3net20QuicUnackedPacketMap24HasRetransmittableFramesEm(ptr noundef nonnull align 8 dereferenceable(120) %unacked_packets_, i64 noundef %2)
  br i1 %call8, label %if.then9, label %if.end11

if.then9:                                         ; preds = %while.body
  %3 = load ptr, ptr %it.sroa.0.05, align 8
  br label %while.cond.backedge

while.cond.backedge:                              ; preds = %if.then9, %if.end11
  %it.sroa.0.0.be = phi ptr [ %3, %if.then9 ], [ %call15, %if.end11 ]
  %cmp.i.not = icmp eq ptr %it.sroa.0.0.be, %list_.i
  br i1 %cmp.i.not, label %while.end, label %while.body, !llvm.loop !97

if.end11:                                         ; preds = %while.body
  %call15 = tail call ptr @_ZN15linked_hash_mapImN3net16TransmissionTypeESt4hashImEE5eraseESt14_List_iteratorISt4pairImS1_EE(ptr noundef nonnull align 8 dereferenceable(80) %pending_retransmissions_, ptr nonnull %it.sroa.0.05)
  br label %while.cond.backedge

while.end:                                        ; preds = %while.cond.backedge, %if.end, %entry
  ret void
}